target datalayout = "e-m:e-p270:32:32-p271:32:32-p272:64:64-i64:64-i128:128-f80:128-n8:16:32:64-S128"
target triple = "x86_64-unknown-linux-gnu"

%"class.arrow::Status" = type { ptr }
%"class.std::__cxx11::basic_string" = type { %"struct.std::__cxx11::basic_string<char>::_Alloc_hider", i64, %union.anon }
%"struct.std::__cxx11::basic_string<char>::_Alloc_hider" = type { ptr }
%union.anon = type { i64, [8 x i8] }
%class.anon.108 = type { ptr, ptr }

@.str.8 = private unnamed_addr constant [15 x i8] c"Integer value \00", align 1
@.str.9 = private unnamed_addr constant [16 x i8] c" not in range: \00", align 1
@.str.10 = private unnamed_addr constant [5 x i8] c" to \00", align 1

; Function Attrs: mustprogress uwtable
define linkonce_odr void @_ZN5arrow6Status8FromArgsIJRA15_KcNSt7__cxx1112basic_stringIcSt11char_traitsIcESaIcEEERA16_S2_SA_RA5_S2_SA_EEES0_NS_10StatusCodeEDpOT_(ptr noalias sret(%"class.arrow::Status") align 8 %agg.result, i8 noundef signext %code, ptr noundef nonnull align 1 dereferenceable(15) %args, ptr noundef nonnull align 8 dereferenceable(32) %args1, ptr noundef nonnull align 1 dereferenceable(16) %args3, ptr noundef nonnull align 8 dereferenceable(32) %args5, ptr noundef nonnull align 1 dereferenceable(5) %args7, ptr noundef nonnull align 8 dereferenceable(32) %args9) #1 comdat align 2 personality ptr @__gxx_personality_v0 {
entry:
  %result.ptr = alloca ptr, align 8
  %code.addr = alloca i8, align 1
  %args.addr = alloca ptr, align 8
  %args.addr2 = alloca ptr, align 8
  %args.addr4 = alloca ptr, align 8
  %args.addr6 = alloca ptr, align 8
  %args.addr8 = alloca ptr, align 8
  %args.addr10 = alloca ptr, align 8
  %ref.tmp = alloca %"class.std::__cxx11::basic_string", align 8
  %exn.slot = alloca ptr, align 8
  %ehselector.slot = alloca i32, align 4
  store ptr %agg.result, ptr %result.ptr, align 8
  store i8 %code, ptr %code.addr, align 1
  store ptr %args, ptr %args.addr, align 8
  store ptr %args1, ptr %args.addr2, align 8
  store ptr %args3, ptr %args.addr4, align 8
  store ptr %args5, ptr %args.addr6, align 8
  store ptr %args7, ptr %args.addr8, align 8
  store ptr %args9, ptr %args.addr10, align 8
  %0 = load i8, ptr %code.addr, align 1
  %1 = load ptr, ptr %args.addr, align 8
  %2 = load ptr, ptr %args.addr2, align 8
  %3 = load ptr, ptr %args.addr4, align 8
  %4 = load ptr, ptr %args.addr6, align 8
  %5 = load ptr, ptr %args.addr8, align 8
  %6 = load ptr, ptr %args.addr10, align 8
  call void @_ZN5arrow4util13StringBuilderIJRA15_KcNSt7__cxx1112basic_stringIcSt11char_traitsIcESaIcEEERA16_S2_SA_RA5_S2_SA_EEESA_DpOT_(ptr sret(%"class.std::__cxx11::basic_string") align 8 %ref.tmp, ptr noundef nonnull align 1 dereferenceable(15) %1, ptr noundef nonnull align 8 dereferenceable(32) %2, ptr noundef nonnull align 1 dereferenceable(16) %3, ptr noundef nonnull align 8 dereferenceable(32) %4, ptr noundef nonnull align 1 dereferenceable(5) %5, ptr noundef nonnull align 8 dereferenceable(32) %6)
  invoke void @_ZN5arrow6StatusC1ENS_10StatusCodeERKNSt7__cxx1112basic_stringIcSt11char_traitsIcESaIcEEE(ptr noundef nonnull align 8 dereferenceable(8) %agg.result, i8 noundef signext %0, ptr noundef nonnull align 8 dereferenceable(32) %ref.tmp)
          to label %invoke.cont unwind label %lpad

invoke.cont:                                      ; preds = %entry
  call void @_ZNSt7__cxx1112basic_stringIcSt11char_traitsIcESaIcEED1Ev(ptr noundef nonnull align 8 dereferenceable(32) %ref.tmp) #9
  ret void

lpad:                                             ; preds = %entry
  %7 = landingpad { ptr, i32 }
          cleanup
  %8 = extractvalue { ptr, i32 } %7, 0
  store ptr %8, ptr %exn.slot, align 8
  %9 = extractvalue { ptr, i32 } %7, 1
  store i32 %9, ptr %ehselector.slot, align 4
  call void @_ZNSt7__cxx1112basic_stringIcSt11char_traitsIcESaIcEED1Ev(ptr noundef nonnull align 8 dereferenceable(32) %ref.tmp) #9
  br label %eh.resume

eh.resume:                                        ; preds = %lpad
  %exn = load ptr, ptr %exn.slot, align 8
  %sel = load i32, ptr %ehselector.slot, align 4
  %lpad.val = insertvalue { ptr, i32 } poison, ptr %exn, 0
  %lpad.val11 = insertvalue { ptr, i32 } %lpad.val, i32 %sel, 1
  resume { ptr, i32 } %lpad.val11
}

; Function Attrs: mustprogress uwtable
define linkonce_odr void @_ZN5arrow6Status7InvalidIJRA15_KcNSt7__cxx1112basic_stringIcSt11char_traitsIcESaIcEEERA16_S2_SA_RA5_S2_SA_EEES0_DpOT_(ptr noalias sret(%"class.arrow::Status") align 8 %agg.result, ptr noundef nonnull align 1 dereferenceable(15) %args, ptr noundef nonnull align 8 dereferenceable(32) %args1, ptr noundef nonnull align 1 dereferenceable(16) %args3, ptr noundef nonnull align 8 dereferenceable(32) %args5, ptr noundef nonnull align 1 dereferenceable(5) %args7, ptr noundef nonnull align 8 dereferenceable(32) %args9) #1 comdat align 2 {
entry:
  %result.ptr = alloca ptr, align 8
  %args.addr = alloca ptr, align 8
  %args.addr2 = alloca ptr, align 8
  %args.addr4 = alloca ptr, align 8
  %args.addr6 = alloca ptr, align 8
  %args.addr8 = alloca ptr, align 8
  %args.addr10 = alloca ptr, align 8
  store ptr %agg.result, ptr %result.ptr, align 8
  store ptr %args, ptr %args.addr, align 8
  store ptr %args1, ptr %args.addr2, align 8
  store ptr %args3, ptr %args.addr4, align 8
  store ptr %args5, ptr %args.addr6, align 8
  store ptr %args7, ptr %args.addr8, align 8
  store ptr %args9, ptr %args.addr10, align 8
  %0 = load ptr, ptr %args.addr, align 8
  %1 = load ptr, ptr %args.addr2, align 8
  %2 = load ptr, ptr %args.addr4, align 8
  %3 = load ptr, ptr %args.addr6, align 8
  %4 = load ptr, ptr %args.addr8, align 8
  %5 = load ptr, ptr %args.addr10, align 8
  call void @_ZN5arrow6Status8FromArgsIJRA15_KcNSt7__cxx1112basic_stringIcSt11char_traitsIcESaIcEEERA16_S2_SA_RA5_S2_SA_EEES0_NS_10StatusCodeEDpOT_(ptr sret(%"class.arrow::Status") align 8 %agg.result, i8 noundef signext 4, ptr noundef nonnull align 1 dereferenceable(15) %0, ptr noundef nonnull align 8 dereferenceable(32) %1, ptr noundef nonnull align 1 dereferenceable(16) %2, ptr noundef nonnull align 8 dereferenceable(32) %3, ptr noundef nonnull align 1 dereferenceable(5) %4, ptr noundef nonnull align 8 dereferenceable(32) %5)
  ret void
}

; Function Attrs: mustprogress uwtable
define internal void @_ZZN5arrow8internal12_GLOBAL__N_115IntegersInRangeINS_9UInt8TypeEhEENS_6StatusERKNS_9ArraySpanET0_S8_ENKUlhE0_clEh(ptr noalias sret(%"class.arrow::Status") align 8 %agg.result, ptr noundef nonnull align 8 dereferenceable(16) %this, i8 noundef zeroext %val) #1 align 2 personality ptr @__gxx_personality_v0 {
entry:
  %result.ptr = alloca ptr, align 8
  %this.addr = alloca ptr, align 8
  %val.addr = alloca i8, align 1
  %ref.tmp = alloca %"class.std::__cxx11::basic_string", align 8
  %ref.tmp2 = alloca %"class.std::__cxx11::basic_string", align 8
  %exn.slot = alloca ptr, align 8
  %ehselector.slot = alloca i32, align 4
  %ref.tmp3 = alloca %"class.std::__cxx11::basic_string", align 8
  store ptr %agg.result, ptr %result.ptr, align 8
  store ptr %this, ptr %this.addr, align 8
  store i8 %val, ptr %val.addr, align 1
  %this1 = load ptr, ptr %this.addr, align 8
  %0 = load i8, ptr %val.addr, align 1
  call void @_ZN5arrow8internal7ToCharsIhJEEENSt7__cxx1112basic_stringIcSt11char_traitsIcESaIcEEET_DpOT0_(ptr sret(%"class.std::__cxx11::basic_string") align 8 %ref.tmp, i8 noundef zeroext %0)
  %1 = getelementptr inbounds %class.anon.108, ptr %this1, i32 0, i32 0
  %2 = load ptr, ptr %1, align 8
  %3 = load i8, ptr %2, align 1
  invoke void @_ZN5arrow8internal7ToCharsIhJEEENSt7__cxx1112basic_stringIcSt11char_traitsIcESaIcEEET_DpOT0_(ptr sret(%"class.std::__cxx11::basic_string") align 8 %ref.tmp2, i8 noundef zeroext %3)
          to label %invoke.cont unwind label %lpad

invoke.cont:                                      ; preds = %entry
  %4 = getelementptr inbounds %class.anon.108, ptr %this1, i32 0, i32 1
  %5 = load ptr, ptr %4, align 8
  %6 = load i8, ptr %5, align 1
  invoke void @_ZN5arrow8internal7ToCharsIhJEEENSt7__cxx1112basic_stringIcSt11char_traitsIcESaIcEEET_DpOT0_(ptr sret(%"class.std::__cxx11::basic_string") align 8 %ref.tmp3, i8 noundef zeroext %6)
          to label %invoke.cont5 unwind label %lpad4

invoke.cont5:                                     ; preds = %invoke.cont
  invoke void @_ZN5arrow6Status7InvalidIJRA15_KcNSt7__cxx1112basic_stringIcSt11char_traitsIcESaIcEEERA16_S2_SA_RA5_S2_SA_EEES0_DpOT_(ptr sret(%"class.arrow::Status") align 8 %agg.result, ptr noundef nonnull align 1 dereferenceable(15) @.str.8, ptr noundef nonnull align 8 dereferenceable(32) %ref.tmp, ptr noundef nonnull align 1 dereferenceable(16) @.str.9, ptr noundef nonnull align 8 dereferenceable(32) %ref.tmp2, ptr noundef nonnull align 1 dereferenceable(5) @.str.10, ptr noundef nonnull align 8 dereferenceable(32) %ref.tmp3)
          to label %invoke.cont7 unwind label %lpad6

invoke.cont7:                                     ; preds = %invoke.cont5
  call void @_ZNSt7__cxx1112basic_stringIcSt11char_traitsIcESaIcEED1Ev(ptr noundef nonnull align 8 dereferenceable(32) %ref.tmp3) #9
  call void @_ZNSt7__cxx1112basic_stringIcSt11char_traitsIcESaIcEED1Ev(ptr noundef nonnull align 8 dereferenceable(32) %ref.tmp2) #9
  call void @_ZNSt7__cxx1112basic_stringIcSt11char_traitsIcESaIcEED1Ev(ptr noundef nonnull align 8 dereferenceable(32) %ref.tmp) #9
  ret void

lpad:                                             ; preds = %entry
  %7 = landingpad { ptr, i32 }
          cleanup
  %8 = extractvalue { ptr, i32 } %7, 0
  store ptr %8, ptr %exn.slot, align 8
  %9 = extractvalue { ptr, i32 } %7, 1
  store i32 %9, ptr %ehselector.slot, align 4
  br label %ehcleanup8

lpad4:                                            ; preds = %invoke.cont
  %10 = landingpad { ptr, i32 }
          cleanup
  %11 = extractvalue { ptr, i32 } %10, 0
  store ptr %11, ptr %exn.slot, align 8
  %12 = extractvalue { ptr, i32 } %10, 1
  store i32 %12, ptr %ehselector.slot, align 4
  br label %ehcleanup

lpad6:                                            ; preds = %invoke.cont5
  %13 = landingpad { ptr, i32 }
          cleanup
  %14 = extractvalue { ptr, i32 } %13, 0
  store ptr %14, ptr %exn.slot, align 8
  %15 = extractvalue { ptr, i32 } %13, 1
  store i32 %15, ptr %ehselector.slot, align 4
  call void @_ZNSt7__cxx1112basic_stringIcSt11char_traitsIcESaIcEED1Ev(ptr noundef nonnull align 8 dereferenceable(32) %ref.tmp3) #9
  br label %ehcleanup

ehcleanup:                                        ; preds = %lpad6, %lpad4
  call void @_ZNSt7__cxx1112basic_stringIcSt11char_traitsIcESaIcEED1Ev(ptr noundef nonnull align 8 dereferenceable(32) %ref.tmp2) #9
  br label %ehcleanup8

ehcleanup8:                                       ; preds = %ehcleanup, %lpad
  call void @_ZNSt7__cxx1112basic_stringIcSt11char_traitsIcESaIcEED1Ev(ptr noundef nonnull align 8 dereferenceable(32) %ref.tmp) #9
  br label %eh.resume

eh.resume:                                        ; preds = %ehcleanup8
  %exn = load ptr, ptr %exn.slot, align 8
  %sel = load i32, ptr %ehselector.slot, align 4
  %lpad.val = insertvalue { ptr, i32 } poison, ptr %exn, 0
  %lpad.val9 = insertvalue { ptr, i32 } %lpad.val, i32 %sel, 1
  resume { ptr, i32 } %lpad.val9
}